; Function Attrs: mustprogress nofree norecurse nosync nounwind willreturn memory(none) uwtable
define range(i32 0, 2) i32 @BIO_fd_non_fatal_error(i32 noundef %0) local_unnamed_addr #0 {
  switch i32 %0, label %2 [
    i32 11, label %3
    i32 107, label %3
    i32 4, label %3
    i32 71, label %3
    i32 115, label %3
    i32 114, label %3
  ]

2:                                                ; preds = %1
  br label %3

3:                                                ; preds = %1, %1, %1, %1, %1, %1, %2
  %.0 = phi i32 [ 0, %2 ], [ 1, %1 ], [ 1, %1 ], [ 1, %1 ], [ 1, %1 ], [ 1, %1 ], [ 1, %1 ]
  ret i32 %.0
}